Certificate:
    Data:
        Version: 3 (0x2)
        Serial Number: 1 (0x1)
    Signature Algorithm: sha256WithRSAEncryption
        Issuer: C=CN, ST=Guangdong, L=ShenZhen, O=PAX, OU=application department, CN=Jeff/emailAddress=xiehuan@paxsz.com
        Validity
            Not Before: Feb 21 17:26:09 2017 GMT
            Not After : Feb 21 17:26:09 2018 GMT
        Subject: C=CN, ST=Guangdong, O=PAX, OU=application department, CN=Jeff/emailAddress=xiehuan@paxsz.com
        Subject Public Key Info:
            Public Key Algorithm: rsaEncryption
                Public-Key: (1024 bit)
                Modulus:
                    00:dc:ec:94:e5:6d:9a:8e:81:54:c8:3e:29:ad:0f:
                    e1:6c:bc:59:19:75:07:b6:ca:07:87:14:09:63:c9:
                    db:a4:1e:42:41:2d:c7:f5:c0:7f:84:9a:90:dd:0d:
                    ee:14:cc:8b:75:c9:ef:d3:2d:08:4f:45:98:bb:91:
                    11:80:ca:b5:46:4e:bf:26:39:78:3f:ab:c3:73:8a:
                    85:d1:b3:29:ea:9d:29:6f:d2:e6:6d:14:4e:a2:24:
                    3c:c1:5d:29:c6:92:10:cc:29:48:43:17:84:41:b6:
                    ae:53:f5:0b:ca:e2:b1:3f:bc:5f:f2:e1:4a:f6:f6:
                    c6:ab:4f:73:cb:e0:c5:3f:7f
                Exponent: 65537 (0x10001)
        X509v3 extensions:
            X509v3 Basic Constraints: 
                CA:FALSE
            Netscape Comment: 
                OpenSSL Generated Certificate
            X509v3 Subject Key Identifier: 
                BF:D2:4B:63:38:93:89:68:84:2F:A6:97:EF:15:0C:BE:72:8E:2E:65
            X509v3 Authority Key Identifier: 
                keyid:EF:CD:98:8B:93:B3:60:3E:F2:61:40:3B:D8:31:36:51:D1:AB:9B:53

    Signature Algorithm: sha256WithRSAEncryption
         32:fc:fa:06:ec:d8:f9:49:d8:ed:f8:b4:9f:a7:e6:75:2e:84:
         99:d9:b4:31:40:7c:31:e2:53:b8:80:b8:5a:30:d8:15:0d:2f:
         37:ca:1d:3e:a1:e5:b9:cb:6e:37:7c:59:1a:88:42:cc:6f:1f:
         1f:a4:ab:21:91:e7:3f:2c:7b:44:2e:1e:a8:ac:c2:42:74:d8:
         cb:0e:e9:c9:02:d2:9a:d8:58:cb:f2:78:0d:af:04:59:04:03:
         f3:38:5c:13:53:91:87:89:dd:8f:88:e1:e1:90:de:02:84:0a:
         d6:cf:33:3f:a1:86:e9:7a:5a:fd:ec:d4:9a:98:f5:ef:57:5f:
         7b:10:16:2f:bf:f7:34:c9:88:c3:ee:22:ef:06:b7:87:6a:bc:
         08:13:b8:35:e9:ef:dc:d4:2f:88:6d:e4:85:33:e1:04:19:8e:
         93:f3:79:5e:42:eb:8b:15:dd:98:61:c6:8d:97:90:9e:dd:5d:
         25:21:83:4a:ca:1d:fd:4b:ae:a5:7a:89:00:0f:18:1d:2c:7d:
         50:63:7b:2d:5a:85:be:81:0f:ac:e4:a0:cb:73:06:4a:48:33:
         c5:fc:e1:a1:a4:fa:4f:a0:5e:ed:7e:50:a7:7e:8e:70:37:1f:
         33:d3:71:77:be:ff:01:11:72:cc:58:0a:28:7b:ac:d8:dd:ab:
         0a:53:b9:32
-----BEGIN CERTIFICATE-----
MIIDiTCCAnGgAwIBAgIBATANBgkqhkiG9w0BAQsFADCBlDELMAkGA1UEBhMCQ04x
EjAQBgNVBAgMCUd1YW5nZG9uZzERMA8GA1UEBwwIU2hlblpoZW4xDDAKBgNVBAoM
A1BBWDEfMB0GA1UECwwWYXBwbGljYXRpb24gZGVwYXJ0bWVudDENMAsGA1UEAwwE
SmVmZjEgMB4GCSqGSIb3DQEJARYReGllaHVhbkBwYXhzei5jb20wHhcNMTcwMjIx
MTcyNjA5WhcNMTgwMjIxMTcyNjA5WjCBgTELMAkGA1UEBhMCQ04xEjAQBgNVBAgM
CUd1YW5nZG9uZzEMMAoGA1UECgwDUEFYMR8wHQYDVQQLDBZhcHBsaWNhdGlvbiBk
ZXBhcnRtZW50MQ0wCwYDVQQDDARKZWZmMSAwHgYJKoZIhvcNAQkBFhF4aWVodWFu
QHBheHN6LmNvbTCBnzANBgkqhkiG9w0BAQEFAAOBjQAwgYkCgYEA3OyU5W2ajoFU
yD4prQ/hbLxZGXUHtsoHhxQJY8nbpB5CQS3H9cB/hJqQ3Q3uFMyLdcnv0y0IT0WY
u5ERgMq1Rk6/Jjl4P6vDc4qF0bMp6p0pb9LmbRROoiQ8wV0pxpIQzClIQxeEQbau
U/ULyuKxP7xf8uFK9vbGq09zy+DFP38CAwEAAaN7MHkwCQYDVR0TBAIwADAsBglg
hkgBhvhCAQ0EHxYdT3BlblNTTCBHZW5lcmF0ZWQgQ2VydGlmaWNhdGUwHQYDVR0O
BBYEFL/SS2M4k4lohC+ml+8VDL5yji5lMB8GA1UdIwQYMBaAFO/NmIuTs2A+8mFA
O9gxNlHRq5tTMA0GCSqGSIb3DQEBCwUAA4IBAQAy/PoG7Nj5Sdjt+LSfp+Z1LoSZ
2bQxQHwx4lO4gLhaMNgVDS83yh0+oeW5y243fFkaiELMbx8fpKshkec/LHtELh6o
rMJCdNjLDunJAtKa2FjL8ngNrwRZBAPzOFwTU5GHid2PiOHhkN4ChArWzzM/oYbp
elr97NSamPXvV197EBYvv/c0yYjD7iLvBreHarwIE7g16e/c1C+IbeSFM+EEGY6T
83leQuuLFd2YYcaNl5Ce3V0lIYNKyh39S66leokADxgdLH1QY3stWoW+gQ+s5KDL
cwZKSDPF/OGhpPpPoF7tflCnfo5wNx8z03F3vv8BEXLMWAooe6zY3asKU7ky
-----END CERTIFICATE-----
